; Function Attrs: mustprogress uwtable
define void @_ZN5folly10IOBufQueue9trimStartEm(ptr noundef nonnull align 8 captures(none) dereferenceable(64) %0, i64 noundef %1) local_unnamed_addr #8 align 2 personality ptr @__gxx_personality_v0 {
  %3 = tail call noundef i64 @_ZN5folly10IOBufQueue15trimStartAtMostEm(ptr noundef nonnull align 8 dereferenceable(64) %0, i64 noundef %1)
  %.not = icmp eq i64 %3, %1
  br i1 %.not, label %9, label %4

4:                                                ; preds = %2
  %5 = tail call ptr @__cxa_allocate_exception(i64 16) #15
  invoke void @_ZNSt15underflow_errorC1EPKc(ptr noundef nonnull align 8 dereferenceable(16) %5, ptr noundef nonnull @.str.20)
          to label %6 unwind label %7

6:                                                ; preds = %4
  tail call void @__cxa_throw(ptr nonnull %5, ptr nonnull @_ZTISt15underflow_error, ptr nonnull @_ZNSt15underflow_errorD1Ev) #16
  unreachable

7:                                                ; preds = %4
  %8 = landingpad { ptr, i32 }
          cleanup
  tail call void @__cxa_free_exception(ptr nonnull %5) #15
  resume { ptr, i32 } %8

9:                                                ; preds = %2
  ret void
}